target datalayout = "e-m:e-p270:32:32-p271:32:32-p272:64:64-i64:64-i128:128-f80:128-n8:16:32:64-S128"
target triple = "x86_64-pc-linux-gnu"

%struct.reassembly_table = type { ptr, ptr, ptr, ptr, ptr }
%struct.reassembly_table_functions = type { ptr, ptr, ptr, ptr, ptr, ptr }

@ett_addr = internal global i32 0, align 4
@proto_gsm_sms = internal global i32 0, align 4
@ett_udh = internal global i32 0, align 4
@ett_gsm_sms = internal global i32 0, align 4
@ett_pid = internal global i32 0, align 4
@ett_pi = internal global i32 0, align 4
@ett_fcs = internal global i32 0, align 4
@ett_vp = internal global i32 0, align 4
@ett_scts = internal global i32 0, align 4
@ett_dt = internal global i32 0, align 4
@ett_st = internal global i32 0, align 4
@ett_dcs = internal global i32 0, align 4
@ett_ud = internal global i32 0, align 4
@ett_udh_tfm = internal global i32 0, align 4
@ett_udh_tfc = internal global i32 0, align 4
@ett_udh_ieis = internal global [256 x i32] zeroinitializer, align 16
@ett_gsm_sms_ud_fragment = internal global i32 0, align 4
@ett_gsm_sms_ud_fragments = internal global i32 0, align 4
@gsm_sms_proto_name = internal global ptr @.str.614, align 8
@gsm_sms_proto_name_short = internal global ptr @.str.615, align 8
@.str.321 = private unnamed_addr constant [8 x i8] c"gsm_sms\00", align 1
@.str.322 = private unnamed_addr constant [17 x i8] c"gsm_sms.udh.port\00", align 1
@.str.323 = private unnamed_addr constant [23 x i8] c"GSM SMS port IE in UDH\00", align 1
@gsm_sms_dissector_tbl = internal global ptr null, align 8
@.str.324 = private unnamed_addr constant [29 x i8] c"try_dissect_message_fragment\00", align 1
@.str.325 = private unnamed_addr constant [11 x i8] c"reassemble\00", align 1
@.str.326 = private unnamed_addr constant [26 x i8] c"Reassemble fragmented SMS\00", align 1
@.str.327 = private unnamed_addr constant [70 x i8] c"Whether the dissector should reassemble SMS spanning multiple packets\00", align 1
@reassemble_sms = internal global i8 1, align 1
@.str.328 = private unnamed_addr constant [34 x i8] c"reassemble_with_lower_layers_info\00", align 1
@.str.329 = private unnamed_addr constant [41 x i8] c"Use lower layers info for SMS reassembly\00", align 1
@.str.330 = private unnamed_addr constant [118 x i8] c"Whether the dissector should take into account info coming from lower layers (like GSM-MAP) to perform SMS reassembly\00", align 1
@reassemble_sms_with_lower_layers_info = internal global i8 1, align 1
@g_sm_fragment_params_table = internal global ptr null, align 8
@g_sm_reassembly_table = internal global %struct.reassembly_table zeroinitializer, align 8
@sm_reassembly_table_functions = internal constant %struct.reassembly_table_functions { ptr @sm_fragment_hash, ptr @sm_fragment_equal, ptr @sm_fragment_temporary_key, ptr @sm_fragment_persistent_key, ptr @sm_fragment_free_temporary_key, ptr @sm_fragment_free_persistent_key }, align 8

; Function Attrs: null_pointer_is_valid sspstrong uwtable
define hidden void @proto_register_gsm_sms() #0 {
  %1 = alloca i32, align 4
  %2 = alloca i32, align 4
  %3 = alloca ptr, align 8
  %4 = alloca ptr, align 8
  %5 = alloca [272 x ptr], align 16
  call void @llvm.lifetime.start.p0(i64 4, ptr %1) #13
  call void @llvm.lifetime.start.p0(i64 4, ptr %2) #13
  call void @llvm.lifetime.start.p0(i64 8, ptr %3) #13
  call void @llvm.lifetime.start.p0(i64 8, ptr %4) #13
  call void @llvm.lifetime.start.p0(i64 2176, ptr %5) #13
  %6 = getelementptr [272 x ptr], ptr %5, i64 0, i64 0
  store ptr @ett_gsm_sms, ptr %6, align 16
  %7 = getelementptr [272 x ptr], ptr %5, i64 0, i64 1
  store ptr @ett_pid, ptr %7, align 8
  %8 = getelementptr [272 x ptr], ptr %5, i64 0, i64 2
  store ptr @ett_pi, ptr %8, align 16
  %9 = getelementptr [272 x ptr], ptr %5, i64 0, i64 3
  store ptr @ett_fcs, ptr %9, align 8
  %10 = getelementptr [272 x ptr], ptr %5, i64 0, i64 4
  store ptr @ett_vp, ptr %10, align 16
  %11 = getelementptr [272 x ptr], ptr %5, i64 0, i64 5
  store ptr @ett_scts, ptr %11, align 8
  %12 = getelementptr [272 x ptr], ptr %5, i64 0, i64 6
  store ptr @ett_dt, ptr %12, align 16
  %13 = getelementptr [272 x ptr], ptr %5, i64 0, i64 7
  store ptr @ett_st, ptr %13, align 8
  %14 = getelementptr [272 x ptr], ptr %5, i64 0, i64 8
  store ptr @ett_addr, ptr %14, align 16
  %15 = getelementptr [272 x ptr], ptr %5, i64 0, i64 9
  store ptr @ett_dcs, ptr %15, align 8
  %16 = getelementptr [272 x ptr], ptr %5, i64 0, i64 10
  store ptr @ett_ud, ptr %16, align 16
  %17 = getelementptr [272 x ptr], ptr %5, i64 0, i64 11
  store ptr @ett_udh, ptr %17, align 8
  %18 = getelementptr [272 x ptr], ptr %5, i64 0, i64 12
  store ptr @ett_udh_tfm, ptr %18, align 16
  %19 = getelementptr [272 x ptr], ptr %5, i64 0, i64 13
  store ptr @ett_udh_tfc, ptr %19, align 8
  store i32 14, ptr %2, align 4
  store i32 0, ptr %1, align 4
  br label %20

20:                                               ; preds = %30, %0
  %21 = load i32, ptr %1, align 4
  %22 = icmp ult i32 %21, 256
  br i1 %22, label %23, label %35

23:                                               ; preds = %20
  %24 = load i32, ptr %1, align 4
  %25 = zext i32 %24 to i64
  %26 = getelementptr [256 x i32], ptr @ett_udh_ieis, i64 0, i64 %25
  %27 = load i32, ptr %2, align 4
  %28 = zext i32 %27 to i64
  %29 = getelementptr [272 x ptr], ptr %5, i64 0, i64 %28
  store ptr %26, ptr %29, align 8
  br label %30

30:                                               ; preds = %23
  %31 = load i32, ptr %1, align 4
  %32 = add i32 %31, 1
  store i32 %32, ptr %1, align 4
  %33 = load i32, ptr %2, align 4
  %34 = add i32 %33, 1
  store i32 %34, ptr %2, align 4
  br label %20, !llvm.loop !8

35:                                               ; preds = %20
  %36 = load i32, ptr %2, align 4
  %37 = add i32 %36, 1
  store i32 %37, ptr %2, align 4
  %38 = zext i32 %36 to i64
  %39 = getelementptr [272 x ptr], ptr %5, i64 0, i64 %38
  store ptr @ett_gsm_sms_ud_fragment, ptr %39, align 8
  %40 = load i32, ptr %2, align 4
  %41 = zext i32 %40 to i64
  %42 = getelementptr [272 x ptr], ptr %5, i64 0, i64 %41
  store ptr @ett_gsm_sms_ud_fragments, ptr %42, align 8
  %43 = load ptr, ptr @gsm_sms_proto_name, align 8
  %44 = load ptr, ptr @gsm_sms_proto_name_short, align 8
  %45 = call i32 @proto_register_protocol(ptr noundef %43, ptr noundef %44, ptr noundef @.str.321)
  store i32 %45, ptr @proto_gsm_sms, align 4
  %46 = load i32, ptr @proto_gsm_sms, align 4
  call void @proto_register_field_array(i32 noundef %46, ptr noundef @proto_register_gsm_sms.hf, i32 noundef 174)
  %47 = getelementptr inbounds [272 x ptr], ptr %5, i64 0, i64 0
  call void @proto_register_subtree_array(ptr noundef %47, i32 noundef 272)
  %48 = load i32, ptr @proto_gsm_sms, align 4
  %49 = call ptr @expert_register_protocol(i32 noundef %48)
  store ptr %49, ptr %4, align 8
  %50 = load ptr, ptr %4, align 8
  call void @expert_register_field_array(ptr noundef %50, ptr noundef @proto_register_gsm_sms.ei, i32 noundef 3)
  %51 = load i32, ptr @proto_gsm_sms, align 4
  %52 = call ptr @register_dissector_table(ptr noundef @.str.322, ptr noundef @.str.323, i32 noundef %51, i32 noundef 5, i32 noundef 1)
  store ptr %52, ptr @gsm_sms_dissector_tbl, align 8
  %53 = load i32, ptr @proto_gsm_sms, align 4
  %54 = call ptr @prefs_register_protocol(i32 noundef %53, ptr noundef null)
  store ptr %54, ptr %3, align 8
  %55 = load ptr, ptr %3, align 8
  call void @prefs_register_obsolete_preference(ptr noundef %55, ptr noundef @.str.324)
  %56 = load ptr, ptr %3, align 8
  call void @prefs_register_bool_preference(ptr noundef %56, ptr noundef @.str.325, ptr noundef @.str.326, ptr noundef @.str.327, ptr noundef @reassemble_sms)
  %57 = load ptr, ptr %3, align 8
  call void @prefs_register_bool_preference(ptr noundef %57, ptr noundef @.str.328, ptr noundef @.str.329, ptr noundef @.str.330, ptr noundef @reassemble_sms_with_lower_layers_info)
  %58 = load i32, ptr @proto_gsm_sms, align 4
  %59 = call ptr @register_dissector(ptr noundef @.str.321, ptr noundef @dissect_gsm_sms, i32 noundef %58)
  %60 = call ptr @wmem_epan_scope()
  %61 = call ptr @wmem_file_scope()
  %62 = call noalias ptr @wmem_multimap_new_autoreset(ptr noundef %60, ptr noundef %61, ptr noundef @sm_fragment_params_hash, ptr noundef @sm_fragment_params_equal)
  store ptr %62, ptr @g_sm_fragment_params_table, align 8
  call void @reassembly_table_register(ptr noundef @g_sm_reassembly_table, ptr noundef @sm_reassembly_table_functions)
  call void @llvm.lifetime.end.p0(i64 2176, ptr %5) #13
  call void @llvm.lifetime.end.p0(i64 8, ptr %4) #13
  call void @llvm.lifetime.end.p0(i64 8, ptr %3) #13
  call void @llvm.lifetime.end.p0(i64 4, ptr %2) #13
  call void @llvm.lifetime.end.p0(i64 4, ptr %1) #13
  ret void
}