; Function Attrs: null_pointer_is_valid sspstrong uwtable
define hidden void @proto_register_gsm_sms() local_unnamed_addr #0 {
  %1 = alloca [272 x ptr], align 16
  call void @llvm.lifetime.start.p0(i64 2176, ptr nonnull %1) #10
  store ptr @ett_gsm_sms, ptr %1, align 16
  %2 = getelementptr inbounds nuw i8, ptr %1, i64 8
  store ptr @ett_pid, ptr %2, align 8
  %3 = getelementptr inbounds nuw i8, ptr %1, i64 16
  store ptr @ett_pi, ptr %3, align 16
  %4 = getelementptr inbounds nuw i8, ptr %1, i64 24
  store ptr @ett_fcs, ptr %4, align 8
  %5 = getelementptr inbounds nuw i8, ptr %1, i64 32
  store ptr @ett_vp, ptr %5, align 16
  %6 = getelementptr inbounds nuw i8, ptr %1, i64 40
  store ptr @ett_scts, ptr %6, align 8
  %7 = getelementptr inbounds nuw i8, ptr %1, i64 48
  store ptr @ett_dt, ptr %7, align 16
  %8 = getelementptr inbounds nuw i8, ptr %1, i64 56
  store ptr @ett_st, ptr %8, align 8
  %9 = getelementptr inbounds nuw i8, ptr %1, i64 64
  store ptr @ett_addr, ptr %9, align 16
  %10 = getelementptr inbounds nuw i8, ptr %1, i64 72
  store ptr @ett_dcs, ptr %10, align 8
  %11 = getelementptr inbounds nuw i8, ptr %1, i64 80
  store ptr @ett_ud, ptr %11, align 16
  %12 = getelementptr inbounds nuw i8, ptr %1, i64 88
  store ptr @ett_udh, ptr %12, align 8
  %13 = getelementptr inbounds nuw i8, ptr %1, i64 96
  store ptr @ett_udh_tfm, ptr %13, align 16
  %14 = getelementptr inbounds nuw i8, ptr %1, i64 104
  store ptr @ett_udh_tfc, ptr %14, align 8
  br label %15

15:                                               ; preds = %0, %15
  %indvars.iv13 = phi i64 [ 14, %0 ], [ %indvars.iv.next14, %15 ]
  %indvars.iv = phi i64 [ 0, %0 ], [ %indvars.iv.next, %15 ]
  %16 = getelementptr [256 x i32], ptr @ett_udh_ieis, i64 0, i64 %indvars.iv
  %17 = getelementptr [272 x ptr], ptr %1, i64 0, i64 %indvars.iv13
  store ptr %16, ptr %17, align 8
  %indvars.iv.next = add nuw nsw i64 %indvars.iv, 1
  %indvars.iv.next14 = add nuw nsw i64 %indvars.iv13, 1
  %exitcond.not = icmp eq i64 %indvars.iv.next, 256
  br i1 %exitcond.not, label %18, label %15, !llvm.loop !8

18:                                               ; preds = %15
  %19 = getelementptr inbounds nuw i8, ptr %1, i64 2160
  store ptr @ett_gsm_sms_ud_fragment, ptr %19, align 16
  %20 = getelementptr inbounds nuw i8, ptr %1, i64 2168
  store ptr @ett_gsm_sms_ud_fragments, ptr %20, align 8
  %21 = tail call i32 @proto_register_protocol(ptr noundef nonnull @.str.614, ptr noundef nonnull @.str.615, ptr noundef nonnull @.str.321)
  store i32 %21, ptr @proto_gsm_sms, align 4
  tail call void @proto_register_field_array(i32 noundef %21, ptr noundef nonnull @proto_register_gsm_sms.hf, i32 noundef 174)
  call void @proto_register_subtree_array(ptr noundef nonnull %1, i32 noundef 272)
  %22 = load i32, ptr @proto_gsm_sms, align 4
  %23 = call ptr @expert_register_protocol(i32 noundef %22)
  call void @expert_register_field_array(ptr noundef %23, ptr noundef nonnull @proto_register_gsm_sms.ei, i32 noundef 3)
  %24 = load i32, ptr @proto_gsm_sms, align 4
  %25 = call ptr @register_dissector_table(ptr noundef nonnull @.str.322, ptr noundef nonnull @.str.323, i32 noundef %24, i32 noundef 5, i32 noundef 1)
  store ptr %25, ptr @gsm_sms_dissector_tbl, align 8
  %26 = load i32, ptr @proto_gsm_sms, align 4
  %27 = call ptr @prefs_register_protocol(i32 noundef %26, ptr noundef null)
  call void @prefs_register_obsolete_preference(ptr noundef %27, ptr noundef nonnull @.str.324)
  call void @prefs_register_bool_preference(ptr noundef %27, ptr noundef nonnull @.str.325, ptr noundef nonnull @.str.326, ptr noundef nonnull @.str.327, ptr noundef nonnull @reassemble_sms)
  call void @prefs_register_bool_preference(ptr noundef %27, ptr noundef nonnull @.str.328, ptr noundef nonnull @.str.329, ptr noundef nonnull @.str.330, ptr noundef nonnull @reassemble_sms_with_lower_layers_info)
  %28 = load i32, ptr @proto_gsm_sms, align 4
  %29 = call ptr @register_dissector(ptr noundef nonnull @.str.321, ptr noundef nonnull @dissect_gsm_sms, i32 noundef %28)
  %30 = call ptr @wmem_epan_scope()
  %31 = call ptr @wmem_file_scope()
  %32 = call noalias ptr @wmem_multimap_new_autoreset(ptr noundef %30, ptr noundef %31, ptr noundef nonnull @sm_fragment_params_hash, ptr noundef nonnull @sm_fragment_params_equal)
  store ptr %32, ptr @g_sm_fragment_params_table, align 8
  call void @reassembly_table_register(ptr noundef nonnull @g_sm_reassembly_table, ptr noundef nonnull @sm_reassembly_table_functions)
  call void @llvm.lifetime.end.p0(i64 2176, ptr nonnull %1) #10
  ret void
}